target datalayout = "e-m:e-p270:32:32-p271:32:32-p272:64:64-i64:64-i128:128-f80:128-n8:16:32:64-S128"
target triple = "x86_64-pc-linux-gnu"

%struct.jv_parser = type { ptr, i32, i32, i32, i32, i32, i32, ptr, i32, i32, %struct.jv, i32, %struct.jv, %struct.jv, ptr, i32, i32, i32, i32, %struct.dtoa_context, i32, i8 }
%struct.jv = type { i8, i8, i16, i32, %union.anon }
%union.anon = type { ptr }
%struct.dtoa_context = type { [8 x ptr], ptr }

; Function Attrs: nounwind uwtable
define internal i32 @jv_is_valid(i64 %0, ptr %1) #0 {
  %3 = alloca %struct.jv, align 8
  %4 = getelementptr inbounds nuw { i64, ptr }, ptr %3, i32 0, i32 0
  store i64 %0, ptr %4, align 8
  %5 = getelementptr inbounds nuw { i64, ptr }, ptr %3, i32 0, i32 1
  store ptr %1, ptr %5, align 8
  %6 = getelementptr inbounds nuw { i64, ptr }, ptr %3, i32 0, i32 0
  %7 = load i64, ptr %6, align 8
  %8 = getelementptr inbounds nuw { i64, ptr }, ptr %3, i32 0, i32 1
  %9 = load ptr, ptr %8, align 8
  %10 = call i32 @jv_get_kind(i64 %7, ptr %9)
  %11 = icmp ne i32 %10, 0
  %12 = zext i1 %11 to i32
  ret i32 %12
}

; Function Attrs: nounwind uwtable
define internal i32 @parse_check_done(ptr noundef %0, ptr noundef %1) #0 {
  %3 = alloca i32, align 4
  %4 = alloca ptr, align 8
  %5 = alloca ptr, align 8
  %6 = alloca %struct.jv, align 8
  store ptr %0, ptr %4, align 8, !tbaa !8
  store ptr %1, ptr %5, align 8, !tbaa !42
  %7 = load ptr, ptr %4, align 8, !tbaa !8
  %8 = getelementptr inbounds nuw %struct.jv_parser, ptr %7, i32 0, i32 8
  %9 = load i32, ptr %8, align 8, !tbaa !22
  %10 = icmp eq i32 %9, 0
  br i1 %10, label %11, label %31

11:                                               ; preds = %2
  %12 = load ptr, ptr %4, align 8, !tbaa !8
  %13 = getelementptr inbounds nuw %struct.jv_parser, ptr %12, i32 0, i32 13
  %14 = getelementptr inbounds nuw { i64, ptr }, ptr %13, i32 0, i32 0
  %15 = load i64, ptr %14, align 8
  %16 = getelementptr inbounds nuw { i64, ptr }, ptr %13, i32 0, i32 1
  %17 = load ptr, ptr %16, align 8
  %18 = call i32 @jv_is_valid(i64 %15, ptr %17)
  %19 = icmp ne i32 %18, 0
  br i1 %19, label %20, label %31

20:                                               ; preds = %11
  %21 = load ptr, ptr %5, align 8, !tbaa !42
  %22 = load ptr, ptr %4, align 8, !tbaa !8
  %23 = getelementptr inbounds nuw %struct.jv_parser, ptr %22, i32 0, i32 13
  call void @llvm.memcpy.p0.p0.i64(ptr align 8 %21, ptr align 8 %23, i64 16, i1 false), !tbaa.struct !18
  %24 = load ptr, ptr %4, align 8, !tbaa !8
  %25 = getelementptr inbounds nuw %struct.jv_parser, ptr %24, i32 0, i32 13
  call void @llvm.lifetime.start.p0(i64 16, ptr %6) #6
  %26 = call { i64, ptr } @jv_invalid()
  %27 = getelementptr inbounds nuw { i64, ptr }, ptr %6, i32 0, i32 0
  %28 = extractvalue { i64, ptr } %26, 0
  store i64 %28, ptr %27, align 8
  %29 = getelementptr inbounds nuw { i64, ptr }, ptr %6, i32 0, i32 1
  %30 = extractvalue { i64, ptr } %26, 1
  store ptr %30, ptr %29, align 8
  call void @llvm.memcpy.p0.p0.i64(ptr align 8 %25, ptr align 8 %6, i64 16, i1 false), !tbaa.struct !18
  call void @llvm.lifetime.end.p0(i64 16, ptr %6) #6
  store i32 1, ptr %3, align 4
  br label %32

31:                                               ; preds = %11, %2
  store i32 0, ptr %3, align 4
  br label %32

32:                                               ; preds = %31, %20
  %33 = load i32, ptr %3, align 4
  ret i32 %33
}