; Function Attrs: nounwind uwtable
define internal fastcc range(i32 0, 2) i32 @parse_check_done(ptr noundef captures(none) %0, ptr noundef nonnull writeonly captures(none) %1) unnamed_addr #0 {
  %3 = getelementptr inbounds nuw i8, ptr %0, i64 40
  %4 = load i32, ptr %3, align 8, !tbaa !32
  %5 = icmp eq i32 %4, 0
  br i1 %5, label %6, label %16

6:                                                ; preds = %2
  %7 = getelementptr inbounds nuw i8, ptr %0, i64 88
  %8 = load i64, ptr %7, align 8
  %9 = getelementptr inbounds nuw i8, ptr %0, i64 96
  %10 = load ptr, ptr %9, align 8
  %11 = tail call i32 @jv_get_kind(i64 %8, ptr %10) #9
  %.not5 = icmp eq i32 %11, 0
  br i1 %.not5, label %16, label %12

12:                                               ; preds = %6
  tail call void @llvm.memcpy.p0.p0.i64(ptr noundef nonnull align 8 dereferenceable(16) %1, ptr noundef nonnull align 8 dereferenceable(16) %7, i64 16, i1 false), !tbaa.struct !34
  %13 = tail call { i64, ptr } @jv_invalid() #9
  %14 = extractvalue { i64, ptr } %13, 0
  %15 = extractvalue { i64, ptr } %13, 1
  store i64 %14, ptr %7, align 8
  store ptr %15, ptr %9, align 8, !tbaa !15
  br label %16

16:                                               ; preds = %2, %6, %12
  %.0 = phi i32 [ 1, %12 ], [ 0, %6 ], [ 0, %2 ]
  ret i32 %.0
}